target datalayout = "e-m:e-p270:32:32-p271:32:32-p272:64:64-i64:64-i128:128-f80:128-n8:16:32:64-S128"
target triple = "x86_64-pc-linux-gnu"

%struct.AVProbeData = type { ptr, ptr, i32, ptr }
%struct.AVFormatContext = type { ptr, ptr, ptr, ptr, ptr, i32, i32, ptr, i32, ptr, i32, ptr, ptr, i64, i64, i64, i32, i32, i32, i64, i64, ptr, i32, i32, ptr, i32, i32, i32, i32, ptr, i64, i32, i32, %struct.AVIOInterruptCB, i32, i32, i32, i32, i64, i32, i32, i32, i32, i32, i32, i32, i32, i32, i32, i32, i32, i64, i32, i32, i32, i32, i32, ptr, ptr, ptr, ptr, i32, ptr, ptr, ptr, ptr, i32, ptr, ptr, i64, ptr, ptr, ptr, i64 }
%struct.AVIOInterruptCB = type { ptr, ptr }
%struct.AVStream = type { ptr, i32, i32, ptr, ptr, %struct.AVRational, i64, i64, i64, i32, i32, %struct.AVRational, ptr, %struct.AVRational, %struct.AVPacket, i32, %struct.AVRational, i32 }
%struct.AVPacket = type { ptr, i64, i64, ptr, i32, i32, i32, ptr, i32, i64, i64, ptr, ptr, %struct.AVRational }
%struct.AVRational = type { i32, i32 }
%struct.CineDemuxContext = type { i64, i64 }
%struct.FFStream = type { %struct.AVStream, ptr, i32, ptr, i32, ptr, i32, %struct.anon, i32, i32, %struct.FFFrac, ptr, ptr, i32, i32, i64, i64, i32, i32, i32, i64, i64, i64, i32, i64, i64, i64, i32, i32, [17 x i64], [17 x i8], [17 x i64], i64, i8, i8, %struct.AVRational, %struct.AVProbeData, ptr, i64, i32, i32, i32, ptr, i32, i32, i64, i64, ptr, %struct.AVRational }
%struct.anon = type { ptr, i32 }
%struct.FFFrac = type { i64, i64, i64 }
%struct.AVIndexEntry = type { i64, i64, i32, i32 }

; Function Attrs: alwaysinline nounwind uwtable
define internal ptr @ffstream(ptr noundef %0) #3 {
  %2 = alloca ptr, align 8
  store ptr %0, ptr %2, align 8, !tbaa !33
  %3 = load ptr, ptr %2, align 8, !tbaa !33
  ret ptr %3
}

; Function Attrs: nounwind uwtable
define internal i32 @cine_read_packet(ptr noundef %0, ptr noundef %1) #0 {
  %3 = alloca i32, align 4
  %4 = alloca ptr, align 8
  %5 = alloca ptr, align 8
  %6 = alloca ptr, align 8
  %7 = alloca ptr, align 8
  %8 = alloca ptr, align 8
  %9 = alloca ptr, align 8
  %10 = alloca i32, align 4
  %11 = alloca i32, align 4
  %12 = alloca i32, align 4
  %13 = alloca i64, align 8
  %14 = alloca i32, align 4
  store ptr %0, ptr %4, align 8, !tbaa !15
  store ptr %1, ptr %5, align 8, !tbaa !58
  call void @llvm.lifetime.start.p0(i64 8, ptr %6) #5
  %15 = load ptr, ptr %4, align 8, !tbaa !15
  %16 = getelementptr inbounds nuw %struct.AVFormatContext, ptr %15, i32 0, i32 3
  %17 = load ptr, ptr %16, align 8, !tbaa !60
  store ptr %17, ptr %6, align 8, !tbaa !61
  call void @llvm.lifetime.start.p0(i64 8, ptr %7) #5
  %18 = load ptr, ptr %4, align 8, !tbaa !15
  %19 = getelementptr inbounds nuw %struct.AVFormatContext, ptr %18, i32 0, i32 7
  %20 = load ptr, ptr %19, align 8, !tbaa !62
  %21 = getelementptr inbounds ptr, ptr %20, i64 0
  %22 = load ptr, ptr %21, align 8, !tbaa !33
  store ptr %22, ptr %7, align 8, !tbaa !33
  call void @llvm.lifetime.start.p0(i64 8, ptr %8) #5
  %23 = load ptr, ptr %7, align 8, !tbaa !33
  %24 = call ptr @ffstream(ptr noundef %23)
  store ptr %24, ptr %8, align 8, !tbaa !63
  call void @llvm.lifetime.start.p0(i64 8, ptr %9) #5
  %25 = load ptr, ptr %4, align 8, !tbaa !15
  %26 = getelementptr inbounds nuw %struct.AVFormatContext, ptr %25, i32 0, i32 4
  %27 = load ptr, ptr %26, align 8, !tbaa !17
  store ptr %27, ptr %9, align 8, !tbaa !32
  call void @llvm.lifetime.start.p0(i64 4, ptr %10) #5
  call void @llvm.lifetime.start.p0(i64 4, ptr %11) #5
  call void @llvm.lifetime.start.p0(i64 4, ptr %12) #5
  call void @llvm.lifetime.start.p0(i64 8, ptr %13) #5
  %28 = load ptr, ptr %6, align 8, !tbaa !61
  %29 = getelementptr inbounds nuw %struct.CineDemuxContext, ptr %28, i32 0, i32 0
  %30 = load i64, ptr %29, align 8, !tbaa !65
  %31 = load ptr, ptr %8, align 8, !tbaa !63
  %32 = getelementptr inbounds nuw %struct.FFStream, ptr %31, i32 0, i32 13
  %33 = load i32, ptr %32, align 8, !tbaa !67
  %34 = sext i32 %33 to i64
  %35 = icmp uge i64 %30, %34
  br i1 %35, label %36, label %37

36:                                               ; preds = %2
  store i32 -541478725, ptr %3, align 4
  store i32 1, ptr %14, align 4
  br label %162

37:                                               ; preds = %2
  %38 = load ptr, ptr %9, align 8, !tbaa !32
  %39 = load ptr, ptr %8, align 8, !tbaa !63
  %40 = getelementptr inbounds nuw %struct.FFStream, ptr %39, i32 0, i32 12
  %41 = load ptr, ptr %40, align 8, !tbaa !78
  %42 = load ptr, ptr %6, align 8, !tbaa !61
  %43 = getelementptr inbounds nuw %struct.CineDemuxContext, ptr %42, i32 0, i32 0
  %44 = load i64, ptr %43, align 8, !tbaa !65
  %45 = getelementptr inbounds nuw %struct.AVIndexEntry, ptr %41, i64 %44
  %46 = getelementptr inbounds nuw %struct.AVIndexEntry, ptr %45, i32 0, i32 0
  %47 = load i64, ptr %46, align 8, !tbaa !79
  %48 = call i64 @avio_seek(ptr noundef %38, i64 noundef %47, i32 noundef 0)
  store i64 %48, ptr %13, align 8, !tbaa !55
  %49 = load i64, ptr %13, align 8, !tbaa !55
  %50 = icmp slt i64 %49, 0
  br i1 %50, label %51, label %54

51:                                               ; preds = %37
  %52 = load i64, ptr %13, align 8, !tbaa !55
  %53 = trunc i64 %52 to i32
  store i32 %53, ptr %3, align 4
  store i32 1, ptr %14, align 4
  br label %162

54:                                               ; preds = %37
  %55 = load ptr, ptr %9, align 8, !tbaa !32
  %56 = call i32 @avio_rl32(ptr noundef %55)
  store i32 %56, ptr %10, align 4, !tbaa !14
  %57 = load i32, ptr %10, align 4, !tbaa !14
  %58 = icmp slt i32 %57, 8
  br i1 %58, label %59, label %60

59:                                               ; preds = %54
  store i32 -1094995529, ptr %3, align 4
  store i32 1, ptr %14, align 4
  br label %162

60:                                               ; preds = %54
  %61 = load ptr, ptr %9, align 8, !tbaa !32
  %62 = load i32, ptr %10, align 4, !tbaa !14
  %63 = sub nsw i32 %62, 8
  %64 = sext i32 %63 to i64
  %65 = call i64 @avio_skip(ptr noundef %61, i64 noundef %64)
  %66 = load ptr, ptr %9, align 8, !tbaa !32
  %67 = call i32 @avio_rl32(ptr noundef %66)
  store i32 %67, ptr %11, align 4, !tbaa !14
  %68 = load ptr, ptr %9, align 8, !tbaa !32
  %69 = call i32 @avio_feof(ptr noundef %68)
  %70 = icmp ne i32 %69, 0
  br i1 %70, label %74, label %71

71:                                               ; preds = %60
  %72 = load i32, ptr %11, align 4, !tbaa !14
  %73 = icmp slt i32 %72, 0
  br i1 %73, label %74, label %75

74:                                               ; preds = %71, %60
  store i32 -1094995529, ptr %3, align 4
  store i32 1, ptr %14, align 4
  br label %162

75:                                               ; preds = %71
  %76 = load ptr, ptr %6, align 8, !tbaa !61
  %77 = getelementptr inbounds nuw %struct.CineDemuxContext, ptr %76, i32 0, i32 1
  %78 = load i64, ptr %77, align 8, !tbaa !81
  %79 = icmp ne i64 %78, 0
  br i1 %79, label %80, label %118

80:                                               ; preds = %75
  %81 = load ptr, ptr %8, align 8, !tbaa !63
  %82 = getelementptr inbounds nuw %struct.FFStream, ptr %81, i32 0, i32 12
  %83 = load ptr, ptr %82, align 8, !tbaa !78
  %84 = load ptr, ptr %6, align 8, !tbaa !61
  %85 = getelementptr inbounds nuw %struct.CineDemuxContext, ptr %84, i32 0, i32 0
  %86 = load i64, ptr %85, align 8, !tbaa !65
  %87 = getelementptr inbounds nuw %struct.AVIndexEntry, ptr %83, i64 %86
  %88 = getelementptr inbounds nuw %struct.AVIndexEntry, ptr %87, i32 0, i32 0
  %89 = load i64, ptr %88, align 8, !tbaa !79
  %90 = load i32, ptr %11, align 4, !tbaa !14
  %91 = sext i32 %90 to i64
  %92 = add i64 %89, %91
  %93 = load i32, ptr %10, align 4, !tbaa !14
  %94 = sext i32 %93 to i64
  %95 = add i64 %92, %94
  %96 = load ptr, ptr %6, align 8, !tbaa !61
  %97 = getelementptr inbounds nuw %struct.CineDemuxContext, ptr %96, i32 0, i32 1
  %98 = load i64, ptr %97, align 8, !tbaa !81
  %99 = icmp ugt i64 %95, %98
  br i1 %99, label %100, label %118

100:                                              ; preds = %80
  %101 = load ptr, ptr %6, align 8, !tbaa !61
  %102 = getelementptr inbounds nuw %struct.CineDemuxContext, ptr %101, i32 0, i32 1
  %103 = load i64, ptr %102, align 8, !tbaa !81
  %104 = load ptr, ptr %8, align 8, !tbaa !63
  %105 = getelementptr inbounds nuw %struct.FFStream, ptr %104, i32 0, i32 12
  %106 = load ptr, ptr %105, align 8, !tbaa !78
  %107 = load ptr, ptr %6, align 8, !tbaa !61
  %108 = getelementptr inbounds nuw %struct.CineDemuxContext, ptr %107, i32 0, i32 0
  %109 = load i64, ptr %108, align 8, !tbaa !65
  %110 = getelementptr inbounds nuw %struct.AVIndexEntry, ptr %106, i64 %109
  %111 = getelementptr inbounds nuw %struct.AVIndexEntry, ptr %110, i32 0, i32 0
  %112 = load i64, ptr %111, align 8, !tbaa !79
  %113 = sub i64 %103, %112
  %114 = load i32, ptr %10, align 4, !tbaa !14
  %115 = sext i32 %114 to i64
  %116 = sub i64 %113, %115
  %117 = trunc i64 %116 to i32
  store i32 %117, ptr %11, align 4, !tbaa !14
  br label %118

118:                                              ; preds = %100, %80, %75
  %119 = load ptr, ptr %9, align 8, !tbaa !32
  %120 = load ptr, ptr %5, align 8, !tbaa !58
  %121 = load i32, ptr %11, align 4, !tbaa !14
  %122 = call i32 @av_get_packet(ptr noundef %119, ptr noundef %120, i32 noundef %121)
  store i32 %122, ptr %12, align 4, !tbaa !14
  %123 = load i32, ptr %12, align 4, !tbaa !14
  %124 = icmp slt i32 %123, 0
  br i1 %124, label %125, label %127

125:                                              ; preds = %118
  %126 = load i32, ptr %12, align 4, !tbaa !14
  store i32 %126, ptr %3, align 4
  store i32 1, ptr %14, align 4
  br label %162

127:                                              ; preds = %118
  %128 = load i32, ptr %12, align 4, !tbaa !14
  %129 = load i32, ptr %11, align 4, !tbaa !14
  %130 = icmp ne i32 %128, %129
  br i1 %130, label %131, label %149

131:                                              ; preds = %127
  %132 = load ptr, ptr %8, align 8, !tbaa !63
  %133 = getelementptr inbounds nuw %struct.FFStream, ptr %132, i32 0, i32 12
  %134 = load ptr, ptr %133, align 8, !tbaa !78
  %135 = load ptr, ptr %6, align 8, !tbaa !61
  %136 = getelementptr inbounds nuw %struct.CineDemuxContext, ptr %135, i32 0, i32 0
  %137 = load i64, ptr %136, align 8, !tbaa !65
  %138 = getelementptr inbounds nuw %struct.AVIndexEntry, ptr %134, i64 %137
  %139 = getelementptr inbounds nuw %struct.AVIndexEntry, ptr %138, i32 0, i32 0
  %140 = load i64, ptr %139, align 8, !tbaa !79
  %141 = load i32, ptr %10, align 4, !tbaa !14
  %142 = sext i32 %141 to i64
  %143 = add i64 %140, %142
  %144 = load i32, ptr %12, align 4, !tbaa !14
  %145 = sext i32 %144 to i64
  %146 = add i64 %143, %145
  %147 = load ptr, ptr %6, align 8, !tbaa !61
  %148 = getelementptr inbounds nuw %struct.CineDemuxContext, ptr %147, i32 0, i32 1
  store i64 %146, ptr %148, align 8, !tbaa !81
  br label %149

149:                                              ; preds = %131, %127
  %150 = load ptr, ptr %6, align 8, !tbaa !61
  %151 = getelementptr inbounds nuw %struct.CineDemuxContext, ptr %150, i32 0, i32 0
  %152 = load i64, ptr %151, align 8, !tbaa !65
  %153 = add i64 %152, 1
  store i64 %153, ptr %151, align 8, !tbaa !65
  %154 = load ptr, ptr %5, align 8, !tbaa !58
  %155 = getelementptr inbounds nuw %struct.AVPacket, ptr %154, i32 0, i32 1
  store i64 %152, ptr %155, align 8, !tbaa !82
  %156 = load ptr, ptr %5, align 8, !tbaa !58
  %157 = getelementptr inbounds nuw %struct.AVPacket, ptr %156, i32 0, i32 5
  store i32 0, ptr %157, align 4, !tbaa !83
  %158 = load ptr, ptr %5, align 8, !tbaa !58
  %159 = getelementptr inbounds nuw %struct.AVPacket, ptr %158, i32 0, i32 6
  %160 = load i32, ptr %159, align 8, !tbaa !84
  %161 = or i32 %160, 1
  store i32 %161, ptr %159, align 8, !tbaa !84
  store i32 0, ptr %3, align 4
  store i32 1, ptr %14, align 4
  br label %162

162:                                              ; preds = %149, %125, %74, %59, %51, %36
  call void @llvm.lifetime.end.p0(i64 8, ptr %13) #5
  call void @llvm.lifetime.end.p0(i64 4, ptr %12) #5
  call void @llvm.lifetime.end.p0(i64 4, ptr %11) #5
  call void @llvm.lifetime.end.p0(i64 4, ptr %10) #5
  call void @llvm.lifetime.end.p0(i64 8, ptr %9) #5
  call void @llvm.lifetime.end.p0(i64 8, ptr %8) #5
  call void @llvm.lifetime.end.p0(i64 8, ptr %7) #5
  call void @llvm.lifetime.end.p0(i64 8, ptr %6) #5
  %163 = load i32, ptr %3, align 4
  ret i32 %163
}