; Function Attrs: nounwind uwtable
define internal i32 @cine_read_packet(ptr noundef readonly captures(none) %0, ptr noundef %1) #1 {
  %3 = getelementptr inbounds nuw i8, ptr %0, i64 24
  %4 = load ptr, ptr %3, align 8, !tbaa !48
  %5 = getelementptr inbounds nuw i8, ptr %0, i64 48
  %6 = load ptr, ptr %5, align 8, !tbaa !49
  %7 = load ptr, ptr %6, align 8, !tbaa !50
  %8 = getelementptr inbounds nuw i8, ptr %0, i64 32
  %9 = load ptr, ptr %8, align 8, !tbaa !12
  %10 = load i64, ptr %4, align 8, !tbaa !52
  %11 = getelementptr inbounds nuw i8, ptr %7, i64 328
  %12 = load i32, ptr %11, align 8, !tbaa !54
  %13 = sext i32 %12 to i64
  %.not = icmp ult i64 %10, %13
  br i1 %.not, label %14, label %67

14:                                               ; preds = %2
  %15 = getelementptr inbounds nuw i8, ptr %7, i64 320
  %16 = load ptr, ptr %15, align 8, !tbaa !66
  %17 = getelementptr inbounds nuw %struct.AVIndexEntry, ptr %16, i64 %10
  %18 = load i64, ptr %17, align 8, !tbaa !67
  %19 = tail call i64 @avio_seek(ptr noundef %9, i64 noundef %18, i32 noundef 0) #7
  %20 = icmp slt i64 %19, 0
  br i1 %20, label %21, label %23

21:                                               ; preds = %14
  %22 = trunc i64 %19 to i32
  br label %67

23:                                               ; preds = %14
  %24 = tail call i32 @avio_rl32(ptr noundef %9) #7
  %25 = icmp slt i32 %24, 8
  br i1 %25, label %67, label %26

26:                                               ; preds = %23
  %27 = add nsw i32 %24, -8
  %28 = zext nneg i32 %27 to i64
  %29 = tail call i64 @avio_skip(ptr noundef %9, i64 noundef %28) #7
  %30 = tail call i32 @avio_rl32(ptr noundef %9) #7
  %31 = tail call i32 @avio_feof(ptr noundef %9) #7
  %32 = icmp ne i32 %31, 0
  %33 = icmp slt i32 %30, 0
  %or.cond = select i1 %32, i1 true, i1 %33
  br i1 %or.cond, label %67, label %34

34:                                               ; preds = %26
  %35 = getelementptr inbounds nuw i8, ptr %4, i64 8
  %36 = load i64, ptr %35, align 8, !tbaa !69
  %.not52 = icmp eq i64 %36, 0
  br i1 %.not52, label %50, label %37

37:                                               ; preds = %34
  %38 = load ptr, ptr %15, align 8, !tbaa !66
  %39 = load i64, ptr %4, align 8, !tbaa !52
  %40 = getelementptr inbounds nuw %struct.AVIndexEntry, ptr %38, i64 %39
  %41 = load i64, ptr %40, align 8, !tbaa !67
  %42 = zext nneg i32 %30 to i64
  %43 = zext nneg i32 %24 to i64
  %44 = add i64 %41, %43
  %45 = add i64 %44, %42
  %46 = icmp ugt i64 %45, %36
  br i1 %46, label %47, label %50

47:                                               ; preds = %37
  %48 = sub i64 %36, %44
  %49 = trunc i64 %48 to i32
  br label %50

50:                                               ; preds = %47, %37, %34
  %.045 = phi i32 [ %49, %47 ], [ %30, %37 ], [ %30, %34 ]
  %51 = tail call i32 @av_get_packet(ptr noundef %9, ptr noundef %1, i32 noundef %.045) #7
  %52 = icmp slt i32 %51, 0
  br i1 %52, label %67, label %53

53:                                               ; preds = %50
  %.not53 = icmp eq i32 %51, %.045
  %.pre = load i64, ptr %4, align 8, !tbaa !52
  br i1 %.not53, label %60, label %54

54:                                               ; preds = %53
  %55 = load ptr, ptr %15, align 8, !tbaa !66
  %56 = getelementptr inbounds nuw %struct.AVIndexEntry, ptr %55, i64 %.pre
  %57 = load i64, ptr %56, align 8, !tbaa !67
  %narrow = add nuw i32 %51, %24
  %58 = zext i32 %narrow to i64
  %59 = add i64 %57, %58
  store i64 %59, ptr %35, align 8, !tbaa !69
  br label %60

60:                                               ; preds = %54, %53
  %61 = add i64 %.pre, 1
  store i64 %61, ptr %4, align 8, !tbaa !52
  %62 = getelementptr inbounds nuw i8, ptr %1, i64 8
  store i64 %.pre, ptr %62, align 8, !tbaa !70
  %63 = getelementptr inbounds nuw i8, ptr %1, i64 36
  store i32 0, ptr %63, align 4, !tbaa !71
  %64 = getelementptr inbounds nuw i8, ptr %1, i64 40
  %65 = load i32, ptr %64, align 8, !tbaa !72
  %66 = or i32 %65, 1
  store i32 %66, ptr %64, align 8, !tbaa !72
  br label %67

67:                                               ; preds = %50, %26, %23, %2, %60, %21
  %.0 = phi i32 [ %22, %21 ], [ 0, %60 ], [ -541478725, %2 ], [ -1094995529, %23 ], [ -1094995529, %26 ], [ %51, %50 ]
  ret i32 %.0
}